target datalayout = "e-m:e-p270:32:32-p271:32:32-p272:64:64-i64:64-i128:128-f80:128-n8:16:32:64-S128"
target triple = "x86_64-pc-linux-gnu"

%struct._zend_executor_globals = type { %struct._zval_struct, %struct._zval_struct, [32 x ptr], ptr, ptr, %struct._zend_array, %struct._zend_array, ptr, i32, i32, ptr, ptr, ptr, ptr, ptr, ptr, i64, ptr, ptr, i32, i32, i64, i32, i32, i32, i8, i8, %struct.zend_atomic_bool_s, %struct.zend_atomic_bool_s, ptr, i64, ptr, ptr, %struct._zend_array, %struct._zend_array, i32, i8, %struct._zval_struct, %struct._zval_struct, %struct._zend_stack, %struct._zend_stack, %struct._zend_stack, ptr, i32, i32, i64, ptr, ptr, ptr, %struct._zend_objects_store, ptr, ptr, ptr, [3 x %struct._zend_op], ptr, i8, i8, i64, i32, i32, ptr, [16 x %struct._HashTableIterator], ptr, %union._zend_function, %struct._zend_op, %struct._zend_array, i64, %struct.zend_get_gc_buffer, ptr, ptr, ptr, i64, i8, i32, ptr, ptr, i64, %struct._zend_call_stack, i64, i64, [6 x ptr] }
%struct.zend_atomic_bool_s = type { i8 }
%struct._zval_struct = type { %union._zend_value, %union.anon, %union.anon.2 }
%union._zend_value = type { i64 }
%union.anon = type { i32 }
%union.anon.2 = type { i32 }
%struct._zend_stack = type { i32, i32, i32, ptr }
%struct._zend_objects_store = type { ptr, i32, i32, i32 }
%struct._HashTableIterator = type { ptr, i32, i32 }
%union._zend_function = type { %struct._zend_op_array }
%struct._zend_op_array = type { i8, [3 x i8], i32, ptr, ptr, ptr, i32, i32, ptr, ptr, ptr, ptr, i32, i32, i32, i32, ptr, ptr, ptr, ptr, ptr, i32, i32, ptr, ptr, ptr, i32, i32, i32, i32, ptr, ptr, [6 x ptr] }
%struct._zend_op = type { ptr, %union._znode_op, %union._znode_op, %union._znode_op, i32, i32, i8, i8, i8, i8 }
%union._znode_op = type { i32 }
%struct._zend_array = type { %struct._zend_refcounted_h, %union.anon.4, i32, %union.anon.6, i32, i32, i32, i32, i64, ptr }
%struct._zend_refcounted_h = type { i32, %union.anon.3 }
%union.anon.3 = type { i32 }
%union.anon.4 = type { i32 }
%union.anon.6 = type { ptr }
%struct.zend_get_gc_buffer = type { ptr, ptr, ptr }
%struct._zend_call_stack = type { ptr, i64 }
%struct._zend_execute_data = type { ptr, ptr, ptr, ptr, %struct._zval_struct, ptr, ptr, ptr, ptr }

@executor_globals = external global %struct._zend_executor_globals, align 8
@spl_ce_SplHeap = global ptr null, align 8

; Function Attrs: nounwind uwtable
define hidden void @zim_SplHeap___debugInfo(ptr noundef %0, ptr noundef %1) #0 {
  %3 = alloca ptr, align 8
  %4 = alloca ptr, align 8
  %5 = alloca ptr, align 8
  %6 = alloca ptr, align 8
  store ptr %0, ptr %3, align 8
  store ptr %1, ptr %4, align 8
  %7 = load ptr, ptr %3, align 8
  %8 = getelementptr inbounds %struct._zend_execute_data, ptr %7, i32 0, i32 4
  %9 = getelementptr inbounds %struct._zval_struct, ptr %8, i32 0, i32 2
  %10 = load i32, ptr %9, align 4
  %11 = icmp eq i32 %10, 0
  %12 = xor i1 %11, true
  %13 = xor i1 %12, true
  %14 = zext i1 %13 to i32
  %15 = sext i32 %14 to i64
  %16 = icmp ne i64 %15, 0
  br i1 %16, label %17, label %18

17:                                               ; preds = %2
  br label %19

18:                                               ; preds = %2
  call void @zend_wrong_parameters_none_error()
  br label %19

19:                                               ; preds = %18, %17
  %20 = phi i32 [ 0, %17 ], [ -1, %18 ]
  %21 = icmp eq i32 %20, -1
  br i1 %21, label %22, label %27

22:                                               ; preds = %19
  br label %23

23:                                               ; preds = %22
  %24 = load ptr, ptr getelementptr inbounds (%struct._zend_executor_globals, ptr @executor_globals, i32 0, i32 50), align 8
  %25 = icmp ne ptr %24, null
  call void @llvm.assume(i1 %25)
  br label %43

26:                                               ; No predecessors!
  br label %27

27:                                               ; preds = %26, %19
  br label %28

28:                                               ; preds = %27
  br label %29

29:                                               ; preds = %28
  %30 = load ptr, ptr @spl_ce_SplHeap, align 8
  %31 = load ptr, ptr %3, align 8
  %32 = getelementptr inbounds %struct._zend_execute_data, ptr %31, i32 0, i32 4
  %33 = getelementptr inbounds %struct._zval_struct, ptr %32, i32 0, i32 0
  %34 = load ptr, ptr %33, align 8
  %35 = call ptr @spl_heap_object_get_debug_info(ptr noundef %30, ptr noundef %34)
  store ptr %35, ptr %5, align 8
  %36 = load ptr, ptr %4, align 8
  store ptr %36, ptr %6, align 8
  %37 = load ptr, ptr %5, align 8
  %38 = load ptr, ptr %6, align 8
  %39 = getelementptr inbounds %struct._zval_struct, ptr %38, i32 0, i32 0
  store ptr %37, ptr %39, align 8
  %40 = load ptr, ptr %6, align 8
  %41 = getelementptr inbounds %struct._zval_struct, ptr %40, i32 0, i32 1
  store i32 775, ptr %41, align 8
  br label %42

42:                                               ; preds = %29
  br label %43

43:                                               ; preds = %42, %23
  ret void
}